Certificate:
    Data:
        Version: 1 (0x0)
        Serial Number: 4097 (0x1001)
    Signature Algorithm: sha256WithRSAEncryption
        Issuer: C=JP, ST=ST, O=rhirabay, CN=rhirabay
        Validity
            Not Before: Mar 21 13:52:37 2022 GMT
            Not After : Mar 21 13:52:37 2023 GMT
        Subject: OU=Unknown, CN=CN
        Subject Public Key Info:
            Public Key Algorithm: rsaEncryption
                Public-Key: (2048 bit)
                Modulus:
                    00:9c:61:3e:5c:76:f5:dd:f3:74:00:ff:24:56:ce:
                    07:29:60:3f:3d:f8:90:56:61:4e:79:f5:ee:e0:c6:
                    13:19:bd:ff:23:0f:fe:a0:3f:f2:92:7e:73:dc:db:
                    53:2d:b8:93:8a:49:34:03:e8:12:d2:36:23:de:84:
                    1d:c0:ba:d1:95:3e:80:db:be:c6:7a:32:cf:3d:73:
                    e3:04:c4:34:c9:8b:59:02:51:3c:ef:53:6f:2e:17:
                    a8:2e:fd:6e:40:fc:eb:01:74:33:19:49:47:33:9c:
                    02:07:46:da:cc:64:aa:93:86:f6:8a:23:10:04:de:
                    a9:3d:d5:b9:2c:1d:eb:b8:18:2f:34:44:d7:23:36:
                    ef:85:ef:ad:69:f4:27:c5:38:80:9c:28:a4:da:a2:
                    f4:aa:59:08:12:71:18:6f:71:2b:03:00:d0:35:a2:
                    3a:8c:0d:43:cb:1e:8a:49:a9:48:b4:7a:c0:17:e2:
                    ed:41:f1:04:1e:fe:cf:01:82:d1:f6:ec:8b:a6:c7:
                    3f:e3:3d:a6:3e:7e:fb:c6:17:ff:e8:cd:7c:89:72:
                    74:16:f8:ce:b1:b5:48:67:dd:7d:c0:c5:b7:bd:2d:
                    35:08:17:9a:4d:80:7d:52:3a:f9:db:59:6b:1a:95:
                    96:e7:19:0f:c2:61:b2:51:df:36:d8:36:b7:5a:fe:
                    dd:a9
                Exponent: 65537 (0x10001)
    Signature Algorithm: sha256WithRSAEncryption
         24:61:30:c5:73:31:87:1c:62:67:5d:11:e2:3b:57:58:cf:d9:
         de:92:82:b5:36:88:20:9b:af:16:95:46:f2:e7:3b:c7:9a:07:
         ef:c2:4b:80:47:cf:a5:bc:3c:fd:79:45:fc:38:b8:24:1f:3b:
         05:3f:8b:8c:7a:23:5c:da:df:c6:55:4f:60:83:88:00:65:f8:
         6d:f3:73:54:05:8d:28:c6:11:c6:e2:60:fa:1c:a8:6f:ed:70:
         82:3c:b3:f9:ec:9f:46:fd:e4:32:ef:61:c8:f0:cd:65:5f:07:
         9c:08:71:2d:e3:de:ab:cb:a1:e7:4d:9b:24:a9:f4:52:38:c6:
         7e:35:6c:b5:06:0e:b6:dd:fc:27:8f:d2:bd:e5:77:bb:5c:5c:
         f9:4a:5a:6b:96:e6:10:e5:89:39:eb:45:3c:cc:1b:46:95:82:
         00:b7:7c:cb:17:f0:33:15:bf:f5:be:0f:b3:86:a8:c8:c0:95:
         99:1f:ee:0c:4c:c5:8e:66:bb:1f:29:4d:5f:4e:2c:f1:bd:58:
         0e:b5:7b:0f:8e:ff:d6:de:ab:fd:4e:b2:52:38:ed:53:ee:48:
         8b:1b:23:6e:a9:97:6e:57:67:b6:9b:bd:03:07:ff:4f:e9:73:
         77:e6:2e:fa:9b:a9:ce:3a:4e:92:15:c0:c9:45:13:11:4a:69:
         44:76:8e:9d
-----BEGIN CERTIFICATE-----
MIIC1DCCAbwCAhABMA0GCSqGSIb3DQEBCwUAMEAxCzAJBgNVBAYTAkpQMQswCQYD
VQQIDAJTVDERMA8GA1UECgwIcmhpcmFiYXkxETAPBgNVBAMMCHJoaXJhYmF5MB4X
DTIyMDMyMTEzNTIzN1oXDTIzMDMyMTEzNTIzN1owHzEQMA4GA1UECxMHVW5rbm93
bjELMAkGA1UEAxMCQ04wggEiMA0GCSqGSIb3DQEBAQUAA4IBDwAwggEKAoIBAQCc
YT5cdvXd83QA/yRWzgcpYD89+JBWYU559e7gxhMZvf8jD/6gP/KSfnPc21MtuJOK
STQD6BLSNiPehB3AutGVPoDbvsZ6Ms89c+MExDTJi1kCUTzvU28uF6gu/W5A/OsB
dDMZSUcznAIHRtrMZKqThvaKIxAE3qk91bksHeu4GC80RNcjNu+F761p9CfFOICc
KKTaovSqWQgScRhvcSsDANA1ojqMDUPLHopJqUi0esAX4u1B8QQe/s8BgtH27Ium
xz/jPaY+fvvGF//ozXyJcnQW+M6xtUhn3X3Axbe9LTUIF5pNgH1SOvnbWWsalZbn
GQ/CYbJR3zbYNrda/t2pAgMBAAEwDQYJKoZIhvcNAQELBQADggEBACRhMMVzMYcc
YmddEeI7V1jP2d6SgrU2iCCbrxaVRvLnO8eaB+/CS4BHz6W8PP15Rfw4uCQfOwU/
i4x6I1za38ZVT2CDiABl+G3zc1QFjSjGEcbiYPocqG/tcII8s/nsn0b95DLvYcjw
zWVfB5wIcS3j3qvLoedNmySp9FI4xn41bLUGDrbd/CeP0r3ld7tcXPlKWmuW5hDl
iTnrRTzMG0aVggC3fMsX8DMVv/W+D7OGqMjAlZkf7gxMxY5mux8pTV9OLPG9WA61
ew+O/9beq/1OslI47VPuSIsbI26pl25XZ7abvQMH/0/pc3fmLvqbqc46TpIVwMlF
ExFKaUR2jp0=
-----END CERTIFICATE-----
